target datalayout = "e-m:e-p270:32:32-p271:32:32-p272:64:64-i64:64-i128:128-f80:128-n8:16:32:64-S128"
target triple = "x86_64-pc-linux-gnu"

@local_energy = internal global ptr null, align 8

; Function Attrs: nounwind uwtable
define dso_local i32 @fini() #0 {
  %1 = alloca i32, align 4
  %2 = call zeroext i1 @slurm_running_in_slurmd_stepd()
  br i1 %2, label %4, label %3

3:                                                ; preds = %0
  store i32 0, ptr %1, align 4
  br label %6

4:                                                ; preds = %0
  %5 = load ptr, ptr @local_energy, align 8
  call void @acct_gather_energy_destroy(ptr noundef %5)
  store ptr null, ptr @local_energy, align 8
  store i32 0, ptr %1, align 4
  br label %6

6:                                                ; preds = %4, %3
  %7 = load i32, ptr %1, align 4
  ret i32 %7
}